; Function Attrs: nounwind uwtable
define dso_local zeroext i1 @have_relevant_joinclause(ptr noundef %0, ptr noundef %1, ptr noundef %2) local_unnamed_addr #0 {
  %4 = getelementptr inbounds nuw i8, ptr %1, i64 328
  %5 = load ptr, ptr %4, align 8
  %.not.i = icmp eq ptr %5, null
  br i1 %.not.i, label %list_length.exit, label %6

6:                                                ; preds = %3
  %7 = getelementptr inbounds nuw i8, ptr %5, i64 4
  %8 = load i32, ptr %7, align 4
  br label %list_length.exit

list_length.exit:                                 ; preds = %3, %6
  %9 = phi i32 [ %8, %6 ], [ 0, %3 ]
  %10 = getelementptr inbounds nuw i8, ptr %2, i64 328
  %11 = load ptr, ptr %10, align 8
  %.not.i28 = icmp eq ptr %11, null
  br i1 %.not.i28, label %list_length.exit29, label %12

12:                                               ; preds = %list_length.exit
  %13 = getelementptr inbounds nuw i8, ptr %11, i64 4
  %14 = load i32, ptr %13, align 4
  br label %list_length.exit29

list_length.exit29:                               ; preds = %list_length.exit, %12
  %15 = phi i32 [ %14, %12 ], [ 0, %list_length.exit ]
  %.not = icmp sgt i32 %9, %15
  %. = select i1 %.not, ptr %1, ptr %2
  %.27 = select i1 %.not, ptr %10, ptr %4
  %.022 = load ptr, ptr %.27, align 8
  %.023.in = getelementptr inbounds nuw i8, ptr %., i64 8
  %.023 = load ptr, ptr %.023.in, align 8
  %.not25 = icmp eq ptr %.022, null
  br i1 %.not25, label %.thread, label %.lr.ph

.lr.ph:                                           ; preds = %list_length.exit29
  %16 = getelementptr inbounds nuw i8, ptr %.022, i64 4
  %17 = getelementptr inbounds nuw i8, ptr %.022, i64 16
  %18 = load i32, ptr %16, align 4
  %19 = icmp sgt i32 %18, 0
  br i1 %19, label %.lr.ph35, label %.thread

20:                                               ; preds = %.lr.ph35
  %indvars.iv.next = add nuw nsw i64 %indvars.iv, 1
  %21 = load i32, ptr %16, align 4
  %22 = sext i32 %21 to i64
  %23 = icmp slt i64 %indvars.iv.next, %22
  br i1 %23, label %.lr.ph35, label %.thread

.lr.ph35:                                         ; preds = %.lr.ph, %20
  %indvars.iv = phi i64 [ %indvars.iv.next, %20 ], [ 0, %.lr.ph ]
  %24 = load ptr, ptr %17, align 8
  %25 = getelementptr inbounds nuw %union.ListCell, ptr %24, i64 %indvars.iv
  %26 = load ptr, ptr %25, align 8
  %27 = getelementptr inbounds nuw i8, ptr %26, i64 48
  %28 = load ptr, ptr %27, align 8
  %29 = tail call zeroext i1 @bms_overlap(ptr noundef %.023, ptr noundef %28) #2
  br i1 %29, label %.critedge, label %20

.thread:                                          ; preds = %20, %.lr.ph, %list_length.exit29
  %30 = getelementptr inbounds nuw i8, ptr %1, i64 336
  %31 = load i8, ptr %30, align 8, !range !4, !noundef !5
  %32 = trunc nuw i8 %31 to i1
  br i1 %32, label %33, label %.critedge

33:                                               ; preds = %.thread
  %34 = getelementptr inbounds nuw i8, ptr %2, i64 336
  %35 = load i8, ptr %34, align 8, !range !4, !noundef !5
  %36 = trunc nuw i8 %35 to i1
  br i1 %36, label %37, label %.critedge

37:                                               ; preds = %33
  %38 = tail call zeroext i1 @have_relevant_eclass_joinclause(ptr noundef %0, ptr noundef nonnull %1, ptr noundef nonnull %2) #2
  br label %.critedge

.critedge:                                        ; preds = %.lr.ph35, %37, %33, %.thread
  %.3 = phi i1 [ %38, %37 ], [ false, %33 ], [ false, %.thread ], [ true, %.lr.ph35 ]
  ret i1 %.3
}